target datalayout = "e-m:e-p270:32:32-p271:32:32-p272:64:64-i64:64-i128:128-f80:128-n8:16:32:64-S128"
target triple = "x86_64-unknown-linux-gnu"

%"class.re2::RE2::Options" = type <{ i64, i32, i8, i8, i8, i8, i8, i8, i8, i8, i8, i8, i8, i8 }>
%"class.re2::RE2" = type <{ ptr, %"class.re2::RE2::Options", ptr, ptr, ptr, ptr, i32, i32, %"class.std::__cxx11::basic_string", ptr, ptr, ptr, ptr, %"class.absl::debian2::once_flag", %"class.absl::debian2::once_flag", %"class.absl::debian2::once_flag", [4 x i8] }>
%"class.std::__cxx11::basic_string" = type { %"struct.std::__cxx11::basic_string<char>::_Alloc_hider", i64, %union.anon }
%"struct.std::__cxx11::basic_string<char>::_Alloc_hider" = type { ptr }
%union.anon = type { i64, [8 x i8] }
%"class.absl::debian2::once_flag" = type { %"struct.std::atomic" }
%"struct.std::atomic" = type { %"struct.std::__atomic_base" }
%"struct.std::__atomic_base" = type { i32 }

; Function Attrs: mustprogress uwtable
define noundef i32 @_ZNK3re23RE213ProgramFanoutEPSt6vectorIiSaIiEE(ptr noundef nonnull align 8 dereferenceable(148) %this, ptr noundef %histogram) #1 align 2 {
entry:
  %retval = alloca i32, align 4
  %this.addr = alloca ptr, align 8
  %histogram.addr = alloca ptr, align 8
  store ptr %this, ptr %this.addr, align 8
  store ptr %histogram, ptr %histogram.addr, align 8
  %this1 = load ptr, ptr %this.addr, align 8
  %prog_ = getelementptr inbounds %"class.re2::RE2", ptr %this1, i32 0, i32 9
  %0 = load ptr, ptr %prog_, align 8
  %cmp = icmp eq ptr %0, null
  br i1 %cmp, label %if.then, label %if.end

if.then:                                          ; preds = %entry
  store i32 -1, ptr %retval, align 4
  br label %return

if.end:                                           ; preds = %entry
  %prog_2 = getelementptr inbounds %"class.re2::RE2", ptr %this1, i32 0, i32 9
  %1 = load ptr, ptr %prog_2, align 8
  %2 = load ptr, ptr %histogram.addr, align 8
  %call = call noundef i32 @_ZN3re2L6FanoutEPNS_4ProgEPSt6vectorIiSaIiEE(ptr noundef %1, ptr noundef %2)
  store i32 %call, ptr %retval, align 4
  br label %return

return:                                           ; preds = %if.end, %if.then
  %3 = load i32, ptr %retval, align 4
  ret i32 %3
}