; Function Attrs: mustprogress uwtable
define noundef range(i32 -1, 33) i32 @_ZNK3re23RE213ProgramFanoutEPSt6vectorIiSaIiEE(ptr noundef nonnull readonly align 8 captures(none) dereferenceable(148) %this, ptr noundef %histogram) local_unnamed_addr #2 align 2 {
entry:
  %prog_ = getelementptr inbounds nuw i8, ptr %this, i64 104
  %0 = load ptr, ptr %prog_, align 8
  %cmp = icmp eq ptr %0, null
  br i1 %cmp, label %return, label %if.end

if.end:                                           ; preds = %entry
  %call = tail call fastcc noundef i32 @_ZN3re2L6FanoutEPNS_4ProgEPSt6vectorIiSaIiEE(ptr noundef %0, ptr noundef %histogram)
  br label %return

return:                                           ; preds = %entry, %if.end
  %retval.0 = phi i32 [ %call, %if.end ], [ -1, %entry ]
  ret i32 %retval.0
}